target datalayout = "e-m:e-p270:32:32-p271:32:32-p272:64:64-i64:64-i128:128-f80:128-n8:16:32:64-S128"
target triple = "x86_64-pc-linux-gnu"

; Function Attrs: mustprogress nounwind uwtable
define hidden noundef ptr @_ZN10SerialHeap17allocate_new_tlabEmmPm(ptr noundef nonnull align 8 dereferenceable(192) %0, i64 noundef %1, i64 noundef %2, ptr noundef %3) unnamed_addr #1 align 2 {
  %5 = alloca ptr, align 8
  %6 = alloca i64, align 8
  %7 = alloca i64, align 8
  %8 = alloca ptr, align 8
  %9 = alloca ptr, align 8
  store ptr %0, ptr %5, align 8
  store i64 %1, ptr %6, align 8
  store i64 %2, ptr %7, align 8
  store ptr %3, ptr %8, align 8
  %10 = load ptr, ptr %5, align 8
  %11 = load i64, ptr %7, align 8
  %12 = call noundef ptr @_ZN10SerialHeap17mem_allocate_workEmb(ptr noundef nonnull align 8 dereferenceable(192) %10, i64 noundef %11, i1 noundef zeroext true)
  store ptr %12, ptr %9, align 8
  %13 = load ptr, ptr %9, align 8
  %14 = icmp ne ptr %13, null
  br i1 %14, label %15, label %18

15:                                               ; preds = %4
  %16 = load i64, ptr %7, align 8
  %17 = load ptr, ptr %8, align 8
  store i64 %16, ptr %17, align 8
  br label %18

18:                                               ; preds = %15, %4
  %19 = load ptr, ptr %9, align 8
  ret ptr %19
}