; Function Attrs: mustprogress nounwind uwtable
define hidden noundef ptr @_ZN10SerialHeap17allocate_new_tlabEmmPm(ptr noundef nonnull align 8 dereferenceable(192) %0, i64 %1, i64 noundef %2, ptr nocapture noundef writeonly %3) unnamed_addr #0 align 2 {
  %5 = tail call noundef ptr @_ZN10SerialHeap17mem_allocate_workEmb(ptr noundef nonnull align 8 dereferenceable(192) %0, i64 noundef %2, i1 noundef zeroext true)
  %.not = icmp eq ptr %5, null
  br i1 %.not, label %7, label %6

6:                                                ; preds = %4
  store i64 %2, ptr %3, align 8
  br label %7

7:                                                ; preds = %6, %4
  ret ptr %5
}